target datalayout = "e-m:e-p270:32:32-p271:32:32-p272:64:64-i64:64-i128:128-f80:128-n8:16:32:64-S128"
target triple = "x86_64-pc-linux-gnu"

%"class.std::__cxx11::basic_string" = type { %"struct.std::__cxx11::basic_string<char>::_Alloc_hider", i64, %union.anon }
%"struct.std::__cxx11::basic_string<char>::_Alloc_hider" = type { ptr }
%union.anon = type { i64, [8 x i8] }
%"class.absl::debian2::AlphaNum" = type { %"class.absl::debian2::string_view", [32 x i8] }
%"class.absl::debian2::string_view" = type { ptr, i64 }
%"class.std::initializer_list.6" = type { ptr, i64 }

; Function Attrs: mustprogress nounwind uwtable
define linkonce_odr dso_local { ptr, i64 } @_ZNK4absl7debian28AlphaNum5PieceEv(ptr noundef nonnull align 8 dereferenceable(48) %0) #1 comdat align 2 {
  %2 = alloca %"class.absl::debian2::string_view", align 8
  %3 = alloca ptr, align 8
  store ptr %0, ptr %3, align 8, !tbaa !11
  %4 = load ptr, ptr %3, align 8
  %5 = getelementptr inbounds nuw %"class.absl::debian2::AlphaNum", ptr %4, i32 0, i32 0
  call void @llvm.memcpy.p0.p0.i64(ptr align 8 %2, ptr align 8 %5, i64 16, i1 false), !tbaa.struct !24
  %6 = load { ptr, i64 }, ptr %2, align 8
  ret { ptr, i64 } %6
}

; Function Attrs: inlinehint mustprogress uwtable
define linkonce_odr dso_local void @_ZN4absl7debian26StrCatIJN4i18n12phonenumbers12StringHolderES4_S4_S4_S4_S4_S4_S4_S4_EEENSt7__cxx1112basic_stringIcSt11char_traitsIcESaIcEEERKNS0_8AlphaNumESD_SD_SD_SD_DpRKT_(ptr dead_on_unwind noalias writable sret(%"class.std::__cxx11::basic_string") align 8 %0, ptr noundef nonnull align 8 dereferenceable(48) %1, ptr noundef nonnull align 8 dereferenceable(48) %2, ptr noundef nonnull align 8 dereferenceable(48) %3, ptr noundef nonnull align 8 dereferenceable(48) %4, ptr noundef nonnull align 8 dereferenceable(48) %5, ptr noundef nonnull align 8 dereferenceable(48) %6, ptr noundef nonnull align 8 dereferenceable(48) %7, ptr noundef nonnull align 8 dereferenceable(48) %8, ptr noundef nonnull align 8 dereferenceable(48) %9, ptr noundef nonnull align 8 dereferenceable(48) %10, ptr noundef nonnull align 8 dereferenceable(48) %11, ptr noundef nonnull align 8 dereferenceable(48) %12, ptr noundef nonnull align 8 dereferenceable(48) %13, ptr noundef nonnull align 8 dereferenceable(48) %14) #4 comdat {
  %16 = alloca ptr, align 8
  %17 = alloca ptr, align 8
  %18 = alloca ptr, align 8
  %19 = alloca ptr, align 8
  %20 = alloca ptr, align 8
  %21 = alloca ptr, align 8
  %22 = alloca ptr, align 8
  %23 = alloca ptr, align 8
  %24 = alloca ptr, align 8
  %25 = alloca ptr, align 8
  %26 = alloca ptr, align 8
  %27 = alloca ptr, align 8
  %28 = alloca ptr, align 8
  %29 = alloca ptr, align 8
  %30 = alloca ptr, align 8
  %31 = alloca %"class.std::initializer_list.6", align 8
  %32 = alloca [14 x %"class.absl::debian2::string_view"], align 8
  store ptr %0, ptr %16, align 8
  store ptr %1, ptr %17, align 8, !tbaa !11
  store ptr %2, ptr %18, align 8, !tbaa !11
  store ptr %3, ptr %19, align 8, !tbaa !11
  store ptr %4, ptr %20, align 8, !tbaa !11
  store ptr %5, ptr %21, align 8, !tbaa !11
  store ptr %6, ptr %22, align 8, !tbaa !70
  store ptr %7, ptr %23, align 8, !tbaa !70
  store ptr %8, ptr %24, align 8, !tbaa !70
  store ptr %9, ptr %25, align 8, !tbaa !70
  store ptr %10, ptr %26, align 8, !tbaa !70
  store ptr %11, ptr %27, align 8, !tbaa !70
  store ptr %12, ptr %28, align 8, !tbaa !70
  store ptr %13, ptr %29, align 8, !tbaa !70
  store ptr %14, ptr %30, align 8, !tbaa !70
  call void @llvm.lifetime.start.p0(i64 224, ptr %32) #16
  %33 = load ptr, ptr %17, align 8, !tbaa !11
  %34 = call { ptr, i64 } @_ZNK4absl7debian28AlphaNum5PieceEv(ptr noundef nonnull align 8 dereferenceable(48) %33)
  %35 = getelementptr inbounds nuw { ptr, i64 }, ptr %32, i32 0, i32 0
  %36 = extractvalue { ptr, i64 } %34, 0
  store ptr %36, ptr %35, align 8
  %37 = getelementptr inbounds nuw { ptr, i64 }, ptr %32, i32 0, i32 1
  %38 = extractvalue { ptr, i64 } %34, 1
  store i64 %38, ptr %37, align 8
  %39 = getelementptr inbounds %"class.absl::debian2::string_view", ptr %32, i64 1
  %40 = load ptr, ptr %18, align 8, !tbaa !11
  %41 = call { ptr, i64 } @_ZNK4absl7debian28AlphaNum5PieceEv(ptr noundef nonnull align 8 dereferenceable(48) %40)
  %42 = getelementptr inbounds nuw { ptr, i64 }, ptr %39, i32 0, i32 0
  %43 = extractvalue { ptr, i64 } %41, 0
  store ptr %43, ptr %42, align 8
  %44 = getelementptr inbounds nuw { ptr, i64 }, ptr %39, i32 0, i32 1
  %45 = extractvalue { ptr, i64 } %41, 1
  store i64 %45, ptr %44, align 8
  %46 = getelementptr inbounds %"class.absl::debian2::string_view", ptr %32, i64 2
  %47 = load ptr, ptr %19, align 8, !tbaa !11
  %48 = call { ptr, i64 } @_ZNK4absl7debian28AlphaNum5PieceEv(ptr noundef nonnull align 8 dereferenceable(48) %47)
  %49 = getelementptr inbounds nuw { ptr, i64 }, ptr %46, i32 0, i32 0
  %50 = extractvalue { ptr, i64 } %48, 0
  store ptr %50, ptr %49, align 8
  %51 = getelementptr inbounds nuw { ptr, i64 }, ptr %46, i32 0, i32 1
  %52 = extractvalue { ptr, i64 } %48, 1
  store i64 %52, ptr %51, align 8
  %53 = getelementptr inbounds %"class.absl::debian2::string_view", ptr %32, i64 3
  %54 = load ptr, ptr %20, align 8, !tbaa !11
  %55 = call { ptr, i64 } @_ZNK4absl7debian28AlphaNum5PieceEv(ptr noundef nonnull align 8 dereferenceable(48) %54)
  %56 = getelementptr inbounds nuw { ptr, i64 }, ptr %53, i32 0, i32 0
  %57 = extractvalue { ptr, i64 } %55, 0
  store ptr %57, ptr %56, align 8
  %58 = getelementptr inbounds nuw { ptr, i64 }, ptr %53, i32 0, i32 1
  %59 = extractvalue { ptr, i64 } %55, 1
  store i64 %59, ptr %58, align 8
  %60 = getelementptr inbounds %"class.absl::debian2::string_view", ptr %32, i64 4
  %61 = load ptr, ptr %21, align 8, !tbaa !11
  %62 = call { ptr, i64 } @_ZNK4absl7debian28AlphaNum5PieceEv(ptr noundef nonnull align 8 dereferenceable(48) %61)
  %63 = getelementptr inbounds nuw { ptr, i64 }, ptr %60, i32 0, i32 0
  %64 = extractvalue { ptr, i64 } %62, 0
  store ptr %64, ptr %63, align 8
  %65 = getelementptr inbounds nuw { ptr, i64 }, ptr %60, i32 0, i32 1
  %66 = extractvalue { ptr, i64 } %62, 1
  store i64 %66, ptr %65, align 8
  %67 = getelementptr inbounds %"class.absl::debian2::string_view", ptr %32, i64 5
  %68 = load ptr, ptr %22, align 8, !tbaa !70
  %69 = call { ptr, i64 } @_ZNK4absl7debian28AlphaNum5PieceEv(ptr noundef nonnull align 8 dereferenceable(48) %68)
  %70 = getelementptr inbounds nuw { ptr, i64 }, ptr %67, i32 0, i32 0
  %71 = extractvalue { ptr, i64 } %69, 0
  store ptr %71, ptr %70, align 8
  %72 = getelementptr inbounds nuw { ptr, i64 }, ptr %67, i32 0, i32 1
  %73 = extractvalue { ptr, i64 } %69, 1
  store i64 %73, ptr %72, align 8
  %74 = getelementptr inbounds %"class.absl::debian2::string_view", ptr %32, i64 6
  %75 = load ptr, ptr %23, align 8, !tbaa !70
  %76 = call { ptr, i64 } @_ZNK4absl7debian28AlphaNum5PieceEv(ptr noundef nonnull align 8 dereferenceable(48) %75)
  %77 = getelementptr inbounds nuw { ptr, i64 }, ptr %74, i32 0, i32 0
  %78 = extractvalue { ptr, i64 } %76, 0
  store ptr %78, ptr %77, align 8
  %79 = getelementptr inbounds nuw { ptr, i64 }, ptr %74, i32 0, i32 1
  %80 = extractvalue { ptr, i64 } %76, 1
  store i64 %80, ptr %79, align 8
  %81 = getelementptr inbounds %"class.absl::debian2::string_view", ptr %32, i64 7
  %82 = load ptr, ptr %24, align 8, !tbaa !70
  %83 = call { ptr, i64 } @_ZNK4absl7debian28AlphaNum5PieceEv(ptr noundef nonnull align 8 dereferenceable(48) %82)
  %84 = getelementptr inbounds nuw { ptr, i64 }, ptr %81, i32 0, i32 0
  %85 = extractvalue { ptr, i64 } %83, 0
  store ptr %85, ptr %84, align 8
  %86 = getelementptr inbounds nuw { ptr, i64 }, ptr %81, i32 0, i32 1
  %87 = extractvalue { ptr, i64 } %83, 1
  store i64 %87, ptr %86, align 8
  %88 = getelementptr inbounds %"class.absl::debian2::string_view", ptr %32, i64 8
  %89 = load ptr, ptr %25, align 8, !tbaa !70
  %90 = call { ptr, i64 } @_ZNK4absl7debian28AlphaNum5PieceEv(ptr noundef nonnull align 8 dereferenceable(48) %89)
  %91 = getelementptr inbounds nuw { ptr, i64 }, ptr %88, i32 0, i32 0
  %92 = extractvalue { ptr, i64 } %90, 0
  store ptr %92, ptr %91, align 8
  %93 = getelementptr inbounds nuw { ptr, i64 }, ptr %88, i32 0, i32 1
  %94 = extractvalue { ptr, i64 } %90, 1
  store i64 %94, ptr %93, align 8
  %95 = getelementptr inbounds %"class.absl::debian2::string_view", ptr %32, i64 9
  %96 = load ptr, ptr %26, align 8, !tbaa !70
  %97 = call { ptr, i64 } @_ZNK4absl7debian28AlphaNum5PieceEv(ptr noundef nonnull align 8 dereferenceable(48) %96)
  %98 = getelementptr inbounds nuw { ptr, i64 }, ptr %95, i32 0, i32 0
  %99 = extractvalue { ptr, i64 } %97, 0
  store ptr %99, ptr %98, align 8
  %100 = getelementptr inbounds nuw { ptr, i64 }, ptr %95, i32 0, i32 1
  %101 = extractvalue { ptr, i64 } %97, 1
  store i64 %101, ptr %100, align 8
  %102 = getelementptr inbounds %"class.absl::debian2::string_view", ptr %32, i64 10
  %103 = load ptr, ptr %27, align 8, !tbaa !70
  %104 = call { ptr, i64 } @_ZNK4absl7debian28AlphaNum5PieceEv(ptr noundef nonnull align 8 dereferenceable(48) %103)
  %105 = getelementptr inbounds nuw { ptr, i64 }, ptr %102, i32 0, i32 0
  %106 = extractvalue { ptr, i64 } %104, 0
  store ptr %106, ptr %105, align 8
  %107 = getelementptr inbounds nuw { ptr, i64 }, ptr %102, i32 0, i32 1
  %108 = extractvalue { ptr, i64 } %104, 1
  store i64 %108, ptr %107, align 8
  %109 = getelementptr inbounds %"class.absl::debian2::string_view", ptr %32, i64 11
  %110 = load ptr, ptr %28, align 8, !tbaa !70
  %111 = call { ptr, i64 } @_ZNK4absl7debian28AlphaNum5PieceEv(ptr noundef nonnull align 8 dereferenceable(48) %110)
  %112 = getelementptr inbounds nuw { ptr, i64 }, ptr %109, i32 0, i32 0
  %113 = extractvalue { ptr, i64 } %111, 0
  store ptr %113, ptr %112, align 8
  %114 = getelementptr inbounds nuw { ptr, i64 }, ptr %109, i32 0, i32 1
  %115 = extractvalue { ptr, i64 } %111, 1
  store i64 %115, ptr %114, align 8
  %116 = getelementptr inbounds %"class.absl::debian2::string_view", ptr %32, i64 12
  %117 = load ptr, ptr %29, align 8, !tbaa !70
  %118 = call { ptr, i64 } @_ZNK4absl7debian28AlphaNum5PieceEv(ptr noundef nonnull align 8 dereferenceable(48) %117)
  %119 = getelementptr inbounds nuw { ptr, i64 }, ptr %116, i32 0, i32 0
  %120 = extractvalue { ptr, i64 } %118, 0
  store ptr %120, ptr %119, align 8
  %121 = getelementptr inbounds nuw { ptr, i64 }, ptr %116, i32 0, i32 1
  %122 = extractvalue { ptr, i64 } %118, 1
  store i64 %122, ptr %121, align 8
  %123 = getelementptr inbounds %"class.absl::debian2::string_view", ptr %32, i64 13
  %124 = load ptr, ptr %30, align 8, !tbaa !70
  %125 = call { ptr, i64 } @_ZNK4absl7debian28AlphaNum5PieceEv(ptr noundef nonnull align 8 dereferenceable(48) %124)
  %126 = getelementptr inbounds nuw { ptr, i64 }, ptr %123, i32 0, i32 0
  %127 = extractvalue { ptr, i64 } %125, 0
  store ptr %127, ptr %126, align 8
  %128 = getelementptr inbounds nuw { ptr, i64 }, ptr %123, i32 0, i32 1
  %129 = extractvalue { ptr, i64 } %125, 1
  store i64 %129, ptr %128, align 8
  %130 = getelementptr inbounds nuw %"class.std::initializer_list.6", ptr %31, i32 0, i32 0
  store ptr %32, ptr %130, align 8, !tbaa !74
  %131 = getelementptr inbounds nuw %"class.std::initializer_list.6", ptr %31, i32 0, i32 1
  store i64 14, ptr %131, align 8, !tbaa !76
  %132 = getelementptr inbounds nuw { ptr, i64 }, ptr %31, i32 0, i32 0
  %133 = load ptr, ptr %132, align 8
  %134 = getelementptr inbounds nuw { ptr, i64 }, ptr %31, i32 0, i32 1
  %135 = load i64, ptr %134, align 8
  call void @_ZN4absl7debian216strings_internal9CatPiecesB5cxx11ESt16initializer_listINS0_11string_viewEE(ptr dead_on_unwind writable sret(%"class.std::__cxx11::basic_string") align 8 %0, ptr %133, i64 %135)
  call void @llvm.lifetime.end.p0(i64 224, ptr %32) #16
  ret void
}

; Function Attrs: mustprogress uwtable
define dso_local void @_ZN4i18n12phonenumbers6StrCatB5cxx11ERKNS0_12StringHolderES3_S3_S3_S3_S3_S3_S3_S3_S3_S3_S3_S3_S3_(ptr dead_on_unwind noalias writable sret(%"class.std::__cxx11::basic_string") align 8 %0, ptr noundef nonnull align 8 dereferenceable(48) %1, ptr noundef nonnull align 8 dereferenceable(48) %2, ptr noundef nonnull align 8 dereferenceable(48) %3, ptr noundef nonnull align 8 dereferenceable(48) %4, ptr noundef nonnull align 8 dereferenceable(48) %5, ptr noundef nonnull align 8 dereferenceable(48) %6, ptr noundef nonnull align 8 dereferenceable(48) %7, ptr noundef nonnull align 8 dereferenceable(48) %8, ptr noundef nonnull align 8 dereferenceable(48) %9, ptr noundef nonnull align 8 dereferenceable(48) %10, ptr noundef nonnull align 8 dereferenceable(48) %11, ptr noundef nonnull align 8 dereferenceable(48) %12, ptr noundef nonnull align 8 dereferenceable(48) %13, ptr noundef nonnull align 8 dereferenceable(48) %14) #0 {
  %16 = alloca ptr, align 8
  %17 = alloca ptr, align 8
  %18 = alloca ptr, align 8
  %19 = alloca ptr, align 8
  %20 = alloca ptr, align 8
  %21 = alloca ptr, align 8
  %22 = alloca ptr, align 8
  %23 = alloca ptr, align 8
  %24 = alloca ptr, align 8
  %25 = alloca ptr, align 8
  %26 = alloca ptr, align 8
  %27 = alloca ptr, align 8
  %28 = alloca ptr, align 8
  %29 = alloca ptr, align 8
  %30 = alloca ptr, align 8
  store ptr %0, ptr %16, align 8
  store ptr %1, ptr %17, align 8, !tbaa !70
  store ptr %2, ptr %18, align 8, !tbaa !70
  store ptr %3, ptr %19, align 8, !tbaa !70
  store ptr %4, ptr %20, align 8, !tbaa !70
  store ptr %5, ptr %21, align 8, !tbaa !70
  store ptr %6, ptr %22, align 8, !tbaa !70
  store ptr %7, ptr %23, align 8, !tbaa !70
  store ptr %8, ptr %24, align 8, !tbaa !70
  store ptr %9, ptr %25, align 8, !tbaa !70
  store ptr %10, ptr %26, align 8, !tbaa !70
  store ptr %11, ptr %27, align 8, !tbaa !70
  store ptr %12, ptr %28, align 8, !tbaa !70
  store ptr %13, ptr %29, align 8, !tbaa !70
  store ptr %14, ptr %30, align 8, !tbaa !70
  %31 = load ptr, ptr %17, align 8, !tbaa !70
  %32 = load ptr, ptr %18, align 8, !tbaa !70
  %33 = load ptr, ptr %19, align 8, !tbaa !70
  %34 = load ptr, ptr %20, align 8, !tbaa !70
  %35 = load ptr, ptr %21, align 8, !tbaa !70
  %36 = load ptr, ptr %22, align 8, !tbaa !70
  %37 = load ptr, ptr %23, align 8, !tbaa !70
  %38 = load ptr, ptr %24, align 8, !tbaa !70
  %39 = load ptr, ptr %25, align 8, !tbaa !70
  %40 = load ptr, ptr %26, align 8, !tbaa !70
  %41 = load ptr, ptr %27, align 8, !tbaa !70
  %42 = load ptr, ptr %28, align 8, !tbaa !70
  %43 = load ptr, ptr %29, align 8, !tbaa !70
  %44 = load ptr, ptr %30, align 8, !tbaa !70
  call void @_ZN4absl7debian26StrCatIJN4i18n12phonenumbers12StringHolderES4_S4_S4_S4_S4_S4_S4_S4_EEENSt7__cxx1112basic_stringIcSt11char_traitsIcESaIcEEERKNS0_8AlphaNumESD_SD_SD_SD_DpRKT_(ptr dead_on_unwind writable sret(%"class.std::__cxx11::basic_string") align 8 %0, ptr noundef nonnull align 8 dereferenceable(48) %31, ptr noundef nonnull align 8 dereferenceable(48) %32, ptr noundef nonnull align 8 dereferenceable(48) %33, ptr noundef nonnull align 8 dereferenceable(48) %34, ptr noundef nonnull align 8 dereferenceable(48) %35, ptr noundef nonnull align 8 dereferenceable(48) %36, ptr noundef nonnull align 8 dereferenceable(48) %37, ptr noundef nonnull align 8 dereferenceable(48) %38, ptr noundef nonnull align 8 dereferenceable(48) %39, ptr noundef nonnull align 8 dereferenceable(48) %40, ptr noundef nonnull align 8 dereferenceable(48) %41, ptr noundef nonnull align 8 dereferenceable(48) %42, ptr noundef nonnull align 8 dereferenceable(48) %43, ptr noundef nonnull align 8 dereferenceable(48) %44)
  ret void
}